target datalayout = "e-m:e-p270:32:32-p271:32:32-p272:64:64-i64:64-i128:128-f80:128-n8:16:32:64-S128"
target triple = "x86_64-pc-linux-gnu"

%struct.SingleChannelElement = type { %struct.IndividualChannelStream, %struct.AACUsacElemData, %struct.TemporalNoiseShaping, [128 x i32], [128 x i32], %union.anon.15, [12 x i8], %union.anon.16, %union.anon.17, %union.anon.18, %union.anon.19, %union.anon.20, %union.anon.21, %union.anon.22 }
%struct.IndividualChannelStream = type { i8, [2 x i32], [2 x i8], i32, i32, [8 x i8], %struct.LongTermPrediction, ptr, i32, i32, i32, i32, i32, i32, [41 x i8], [8 x i8] }
%struct.LongTermPrediction = type { i8, i16, %union.anon.10, [40 x i8] }
%union.anon.10 = type { i32 }
%struct.AACUsacElemData = type { i8, i8, i8, [16 x i8], %struct.anon.11, %struct.anon.12, %struct.anon.13, %struct.AACArithState }
%struct.anon.11 = type { i16, i32 }
%struct.anon.12 = type { i32, i8 }
%struct.anon.13 = type { i8, [8 x [8 x i32]] }
%struct.AACArithState = type { [513 x i8], i32, [4 x i8], i16 }
%struct.TemporalNoiseShaping = type { i32, [8 x i32], [8 x [4 x i32]], [8 x [4 x i32]], [8 x [4 x i32]], %union.anon.14 }
%union.anon.14 = type { [8 x [4 x [20 x i32]]] }
%union.anon.15 = type { [128 x i32] }
%union.anon.16 = type { [1024 x i32] }
%union.anon.17 = type { [1024 x i32] }
%union.anon.18 = type { [1536 x i32] }
%union.anon.19 = type { [2048 x i32] }
%union.anon.20 = type { [3072 x i32] }
%union.anon.21 = type { ptr }
%union.anon.22 = type { ptr }

@ff_aac_pow2sf_tab = external global [428 x float], align 16

; Function Attrs: nounwind uwtable
define internal void @dequant_scalefactors(ptr noundef %0) #3 {
  %2 = alloca ptr, align 8
  %3 = alloca ptr, align 8
  %4 = alloca ptr, align 8
  %5 = alloca ptr, align 8
  %6 = alloca i32, align 4
  %7 = alloca i32, align 4
  %8 = alloca i32, align 4
  %9 = alloca i32, align 4
  store ptr %0, ptr %2, align 8, !tbaa !66
  call void @llvm.lifetime.start.p0(i64 8, ptr %3) #11
  %10 = load ptr, ptr %2, align 8, !tbaa !66
  %11 = getelementptr inbounds nuw %struct.SingleChannelElement, ptr %10, i32 0, i32 0
  store ptr %11, ptr %3, align 8, !tbaa !68
  call void @llvm.lifetime.start.p0(i64 8, ptr %4) #11
  %12 = load ptr, ptr %2, align 8, !tbaa !66
  %13 = getelementptr inbounds nuw %struct.SingleChannelElement, ptr %12, i32 0, i32 4
  %14 = getelementptr inbounds [128 x i32], ptr %13, i64 0, i64 0
  store ptr %14, ptr %4, align 8, !tbaa !70
  call void @llvm.lifetime.start.p0(i64 8, ptr %5) #11
  %15 = load ptr, ptr %2, align 8, !tbaa !66
  %16 = getelementptr inbounds nuw %struct.SingleChannelElement, ptr %15, i32 0, i32 5
  %17 = getelementptr inbounds [128 x float], ptr %16, i64 0, i64 0
  store ptr %17, ptr %5, align 8, !tbaa !71
  call void @llvm.lifetime.start.p0(i64 4, ptr %6) #11
  store i32 0, ptr %6, align 4, !tbaa !73
  call void @llvm.lifetime.start.p0(i64 4, ptr %7) #11
  store i32 0, ptr %7, align 4, !tbaa !73
  br label %18

18:                                               ; preds = %106, %1
  %19 = load i32, ptr %7, align 4, !tbaa !73
  %20 = load ptr, ptr %3, align 8, !tbaa !68
  %21 = getelementptr inbounds nuw %struct.IndividualChannelStream, ptr %20, i32 0, i32 3
  %22 = load i32, ptr %21, align 8, !tbaa !74
  %23 = icmp slt i32 %19, %22
  br i1 %23, label %25, label %24

24:                                               ; preds = %18
  store i32 2, ptr %8, align 4
  call void @llvm.lifetime.end.p0(i64 4, ptr %7) #11
  br label %109

25:                                               ; preds = %18
  call void @llvm.lifetime.start.p0(i64 4, ptr %9) #11
  store i32 0, ptr %9, align 4, !tbaa !73
  br label %26

26:                                               ; preds = %100, %25
  %27 = load i32, ptr %9, align 4, !tbaa !73
  %28 = load ptr, ptr %3, align 8, !tbaa !68
  %29 = getelementptr inbounds nuw %struct.IndividualChannelStream, ptr %28, i32 0, i32 0
  %30 = load i8, ptr %29, align 8, !tbaa !78
  %31 = zext i8 %30 to i32
  %32 = icmp slt i32 %27, %31
  br i1 %32, label %34, label %33

33:                                               ; preds = %26
  store i32 5, ptr %8, align 4
  call void @llvm.lifetime.end.p0(i64 4, ptr %9) #11
  br label %105

34:                                               ; preds = %26
  %35 = load ptr, ptr %2, align 8, !tbaa !66
  %36 = getelementptr inbounds nuw %struct.SingleChannelElement, ptr %35, i32 0, i32 3
  %37 = load i32, ptr %7, align 4, !tbaa !73
  %38 = load ptr, ptr %3, align 8, !tbaa !68
  %39 = getelementptr inbounds nuw %struct.IndividualChannelStream, ptr %38, i32 0, i32 0
  %40 = load i8, ptr %39, align 8, !tbaa !78
  %41 = zext i8 %40 to i32
  %42 = mul nsw i32 %37, %41
  %43 = load i32, ptr %9, align 4, !tbaa !73
  %44 = add nsw i32 %42, %43
  %45 = sext i32 %44 to i64
  %46 = getelementptr inbounds [128 x i32], ptr %36, i64 0, i64 %45
  %47 = load i32, ptr %46, align 4, !tbaa !73
  switch i32 %47, label %84 [
    i32 0, label %48
    i32 15, label %53
    i32 14, label %53
    i32 13, label %69
  ]

48:                                               ; preds = %34
  %49 = load ptr, ptr %5, align 8, !tbaa !71
  %50 = load i32, ptr %6, align 4, !tbaa !73
  %51 = sext i32 %50 to i64
  %52 = getelementptr inbounds float, ptr %49, i64 %51
  store float 0.000000e+00, ptr %52, align 4, !tbaa !79
  br label %99

53:                                               ; preds = %34, %34
  %54 = load ptr, ptr %4, align 8, !tbaa !70
  %55 = load i32, ptr %6, align 4, !tbaa !73
  %56 = sext i32 %55 to i64
  %57 = getelementptr inbounds i32, ptr %54, i64 %56
  %58 = load i32, ptr %57, align 4, !tbaa !73
  %59 = sub nsw i32 0, %58
  %60 = sub nsw i32 %59, 100
  %61 = add nsw i32 %60, 200
  %62 = sext i32 %61 to i64
  %63 = getelementptr inbounds [428 x float], ptr @ff_aac_pow2sf_tab, i64 0, i64 %62
  %64 = load float, ptr %63, align 4, !tbaa !79
  %65 = load ptr, ptr %5, align 8, !tbaa !71
  %66 = load i32, ptr %6, align 4, !tbaa !73
  %67 = sext i32 %66 to i64
  %68 = getelementptr inbounds float, ptr %65, i64 %67
  store float %64, ptr %68, align 4, !tbaa !79
  br label %99

69:                                               ; preds = %34
  %70 = load ptr, ptr %4, align 8, !tbaa !70
  %71 = load i32, ptr %6, align 4, !tbaa !73
  %72 = sext i32 %71 to i64
  %73 = getelementptr inbounds i32, ptr %70, i64 %72
  %74 = load i32, ptr %73, align 4, !tbaa !73
  %75 = add nsw i32 %74, 200
  %76 = sext i32 %75 to i64
  %77 = getelementptr inbounds [428 x float], ptr @ff_aac_pow2sf_tab, i64 0, i64 %76
  %78 = load float, ptr %77, align 4, !tbaa !79
  %79 = fneg nsz float %78
  %80 = load ptr, ptr %5, align 8, !tbaa !71
  %81 = load i32, ptr %6, align 4, !tbaa !73
  %82 = sext i32 %81 to i64
  %83 = getelementptr inbounds float, ptr %80, i64 %82
  store float %79, ptr %83, align 4, !tbaa !79
  br label %99

84:                                               ; preds = %34
  %85 = load ptr, ptr %4, align 8, !tbaa !70
  %86 = load i32, ptr %6, align 4, !tbaa !73
  %87 = sext i32 %86 to i64
  %88 = getelementptr inbounds i32, ptr %85, i64 %87
  %89 = load i32, ptr %88, align 4, !tbaa !73
  %90 = add nsw i32 %89, 200
  %91 = sext i32 %90 to i64
  %92 = getelementptr inbounds [428 x float], ptr @ff_aac_pow2sf_tab, i64 0, i64 %91
  %93 = load float, ptr %92, align 4, !tbaa !79
  %94 = fneg nsz float %93
  %95 = load ptr, ptr %5, align 8, !tbaa !71
  %96 = load i32, ptr %6, align 4, !tbaa !73
  %97 = sext i32 %96 to i64
  %98 = getelementptr inbounds float, ptr %95, i64 %97
  store float %94, ptr %98, align 4, !tbaa !79
  br label %99

99:                                               ; preds = %84, %69, %53, %48
  br label %100

100:                                              ; preds = %99
  %101 = load i32, ptr %9, align 4, !tbaa !73
  %102 = add nsw i32 %101, 1
  store i32 %102, ptr %9, align 4, !tbaa !73
  %103 = load i32, ptr %6, align 4, !tbaa !73
  %104 = add nsw i32 %103, 1
  store i32 %104, ptr %6, align 4, !tbaa !73
  br label %26, !llvm.loop !80

105:                                              ; preds = %33
  br label %106

106:                                              ; preds = %105
  %107 = load i32, ptr %7, align 4, !tbaa !73
  %108 = add nsw i32 %107, 1
  store i32 %108, ptr %7, align 4, !tbaa !73
  br label %18, !llvm.loop !82

109:                                              ; preds = %24
  call void @llvm.lifetime.end.p0(i64 4, ptr %6) #11
  call void @llvm.lifetime.end.p0(i64 8, ptr %5) #11
  call void @llvm.lifetime.end.p0(i64 8, ptr %4) #11
  call void @llvm.lifetime.end.p0(i64 8, ptr %3) #11
  ret void
}