; Function Attrs: nofree norecurse nosync nounwind memory(read, argmem: readwrite, inaccessiblemem: none) uwtable
define internal void @dequant_scalefactors(ptr noundef captures(none) %0) #4 {
  %2 = getelementptr inbounds nuw i8, ptr %0, i64 4484
  %3 = getelementptr inbounds nuw i8, ptr %0, i64 4996
  %4 = getelementptr inbounds nuw i8, ptr %0, i64 16
  %5 = load i32, ptr %4, align 8, !tbaa !59
  %6 = icmp sgt i32 %5, 0
  br i1 %6, label %.preheader.lr.ph, label %._crit_edge34

.preheader.lr.ph:                                 ; preds = %1
  %7 = load i8, ptr %0, align 8, !tbaa !63
  %.not = icmp eq i8 %7, 0
  %8 = getelementptr inbounds nuw i8, ptr %0, i64 3972
  br i1 %.not, label %._crit_edge34, label %.preheader.us.preheader

.preheader.us.preheader:                          ; preds = %.preheader.lr.ph
  %9 = zext i8 %7 to i64
  %wide.trip.count44 = zext nneg i32 %5 to i64
  br label %.preheader.us

.preheader.us:                                    ; preds = %.preheader.us.preheader, %._crit_edge.us
  %indvars.iv41 = phi i64 [ 0, %.preheader.us.preheader ], [ %indvars.iv.next42, %._crit_edge.us ]
  %.02832.us = phi i64 [ 0, %.preheader.us.preheader ], [ %indvars.iv.next37, %._crit_edge.us ]
  %10 = mul nuw nsw i64 %indvars.iv41, %9
  %sext = shl i64 %.02832.us, 32
  %11 = ashr exact i64 %sext, 32
  br label %12

12:                                               ; preds = %.preheader.us, %39
  %indvars.iv36 = phi i64 [ %11, %.preheader.us ], [ %indvars.iv.next37, %39 ]
  %indvars.iv = phi i64 [ 0, %.preheader.us ], [ %indvars.iv.next, %39 ]
  %13 = add nuw nsw i64 %10, %indvars.iv
  %14 = getelementptr inbounds nuw [128 x i32], ptr %8, i64 0, i64 %13
  %15 = load i32, ptr %14, align 4, !tbaa !64
  switch i32 %15, label %31 [
    i32 0, label %39
    i32 15, label %24
    i32 14, label %24
    i32 13, label %16
  ]

16:                                               ; preds = %12
  %17 = getelementptr inbounds i32, ptr %2, i64 %indvars.iv36
  %18 = load i32, ptr %17, align 4, !tbaa !64
  %19 = add nsw i32 %18, 200
  %20 = sext i32 %19 to i64
  %21 = getelementptr inbounds [428 x float], ptr @ff_aac_pow2sf_tab, i64 0, i64 %20
  %22 = load float, ptr %21, align 4, !tbaa !65
  %23 = fneg nsz float %22
  br label %39

24:                                               ; preds = %12, %12
  %25 = getelementptr inbounds i32, ptr %2, i64 %indvars.iv36
  %26 = load i32, ptr %25, align 4, !tbaa !64
  %27 = sub i32 100, %26
  %28 = sext i32 %27 to i64
  %29 = getelementptr inbounds [428 x float], ptr @ff_aac_pow2sf_tab, i64 0, i64 %28
  %30 = load float, ptr %29, align 4, !tbaa !65
  br label %39

31:                                               ; preds = %12
  %32 = getelementptr inbounds i32, ptr %2, i64 %indvars.iv36
  %33 = load i32, ptr %32, align 4, !tbaa !64
  %34 = add nsw i32 %33, 200
  %35 = sext i32 %34 to i64
  %36 = getelementptr inbounds [428 x float], ptr @ff_aac_pow2sf_tab, i64 0, i64 %35
  %37 = load float, ptr %36, align 4, !tbaa !65
  %38 = fneg nsz float %37
  br label %39

39:                                               ; preds = %12, %31, %24, %16
  %.sink = phi float [ %38, %31 ], [ %30, %24 ], [ %23, %16 ], [ 0.000000e+00, %12 ]
  %40 = getelementptr inbounds float, ptr %3, i64 %indvars.iv36
  store float %.sink, ptr %40, align 4, !tbaa !65
  %indvars.iv.next = add nuw nsw i64 %indvars.iv, 1
  %indvars.iv.next37 = add nsw i64 %indvars.iv36, 1
  %exitcond.not = icmp eq i64 %indvars.iv.next, %9
  br i1 %exitcond.not, label %._crit_edge.us, label %12, !llvm.loop !66

._crit_edge.us:                                   ; preds = %39
  %indvars.iv.next42 = add nuw nsw i64 %indvars.iv41, 1
  %exitcond45.not = icmp eq i64 %indvars.iv.next42, %wide.trip.count44
  br i1 %exitcond45.not, label %._crit_edge34, label %.preheader.us, !llvm.loop !68

._crit_edge34:                                    ; preds = %._crit_edge.us, %.preheader.lr.ph, %1
  ret void
}